target datalayout = "e-m:e-p270:32:32-p271:32:32-p272:64:64-i64:64-i128:128-f80:128-n8:16:32:64-S128"
target triple = "x86_64-pc-linux-gnu"

%struct._exr_encode_pipeline = type { i64, ptr, i16, i16, i32, ptr, %struct.exr_chunk_info_t, ptr, ptr, i64, i64, ptr, i64, ptr, i64, i64, ptr, i64, i64, ptr, i64, ptr, i64, ptr, ptr, ptr, ptr, ptr, ptr, [5 x %struct.exr_coding_channel_info_t] }
%struct.exr_chunk_info_t = type { i32, i32, i32, i32, i32, i8, i8, i8, i8, i64, i64, i64, i64, i64 }
%struct.exr_coding_channel_info_t = type { ptr, i32, i32, i32, i32, i8, i8, i16, i16, i16, i32, i32, %union.anon }
%union.anon = type { ptr }
%struct._priv_exr_context_t = type { i8, i8, i8, i8, i8, i8, i8, i8, %struct.exr_attr_string_t, %struct.exr_attr_string_t, ptr, ptr, ptr, ptr, ptr, ptr, ptr, ptr, i32, i32, i32, i32, i32, float, ptr, ptr, ptr, i64, ptr, ptr, i64, i32, i32, i32, i32, %struct._priv_exr_part_t, ptr, ptr, %struct.exr_attribute_list, %union.pthread_mutex_t, i8, i8, [2 x i8], i32 }
%struct.exr_attr_string_t = type { i32, i32, ptr }
%struct._priv_exr_part_t = type { i32, i32, %struct.exr_attribute_list, ptr, ptr, ptr, ptr, ptr, ptr, ptr, ptr, ptr, ptr, ptr, ptr, ptr, ptr, %struct.exr_attr_box2i_t, %struct.exr_attr_box2i_t, i32, i32, i32, float, i32, i32, ptr, ptr, ptr, ptr, i64, i16, i16, i32, i64, i64 }
%struct.exr_attr_box2i_t = type { %struct.exr_attr_v2i_t, %struct.exr_attr_v2i_t }
%struct.exr_attr_v2i_t = type { i32, i32 }
%struct.exr_attribute_list = type { i32, i32, ptr, ptr }
%union.pthread_mutex_t = type { %struct.__pthread_mutex_s }
%struct.__pthread_mutex_s = type { i32, i32, i32, i32, i32, i16, i16, %struct.__pthread_internal_list }
%struct.__pthread_internal_list = type { ptr, ptr }

; Function Attrs: nounwind uwtable
define i32 @exr_encoding_destroy(ptr noundef %0, ptr noundef %1) #0 {
  %3 = alloca i32, align 4
  %4 = alloca ptr, align 8
  %5 = alloca ptr, align 8
  %6 = alloca %struct._exr_encode_pipeline, align 8
  store ptr %0, ptr %4, align 8, !tbaa !3
  store ptr %1, ptr %5, align 8, !tbaa !11
  %7 = load ptr, ptr %4, align 8, !tbaa !3
  %8 = icmp ne ptr %7, null
  br i1 %8, label %10, label %9

9:                                                ; preds = %2
  store i32 2, ptr %3, align 4
  br label %61

10:                                               ; preds = %2
  %11 = load ptr, ptr %5, align 8, !tbaa !11
  %12 = icmp ne ptr %11, null
  br i1 %12, label %13, label %60

13:                                               ; preds = %10
  call void @llvm.lifetime.start.p0(i64 512, ptr %6) #7
  call void @llvm.memset.p0.i64(ptr align 8 %6, i8 0, i64 512, i1 false)
  %14 = load ptr, ptr %5, align 8, !tbaa !11
  %15 = getelementptr inbounds nuw %struct._exr_encode_pipeline, ptr %14, i32 0, i32 1
  %16 = load ptr, ptr %15, align 8, !tbaa !60
  %17 = load ptr, ptr %5, align 8, !tbaa !11
  %18 = getelementptr inbounds nuw %struct._exr_encode_pipeline, ptr %17, i32 0, i32 29
  %19 = getelementptr inbounds [5 x %struct.exr_coding_channel_info_t], ptr %18, i64 0, i64 0
  %20 = icmp ne ptr %16, %19
  br i1 %20, label %21, label %28

21:                                               ; preds = %13
  %22 = load ptr, ptr %4, align 8, !tbaa !3
  %23 = getelementptr inbounds nuw %struct._priv_exr_context_t, ptr %22, i32 0, i32 17
  %24 = load ptr, ptr %23, align 8, !tbaa !78
  %25 = load ptr, ptr %5, align 8, !tbaa !11
  %26 = getelementptr inbounds nuw %struct._exr_encode_pipeline, ptr %25, i32 0, i32 1
  %27 = load ptr, ptr %26, align 8, !tbaa !60
  call void %24(ptr noundef %27)
  br label %28

28:                                               ; preds = %21, %13
  %29 = load ptr, ptr %5, align 8, !tbaa !11
  %30 = load ptr, ptr %5, align 8, !tbaa !11
  %31 = getelementptr inbounds nuw %struct._exr_encode_pipeline, ptr %30, i32 0, i32 8
  %32 = load ptr, ptr %5, align 8, !tbaa !11
  %33 = getelementptr inbounds nuw %struct._exr_encode_pipeline, ptr %32, i32 0, i32 10
  %34 = call i32 @internal_encode_free_buffer(ptr noundef %29, i32 noundef 0, ptr noundef %31, ptr noundef %33)
  %35 = load ptr, ptr %5, align 8, !tbaa !11
  %36 = load ptr, ptr %5, align 8, !tbaa !11
  %37 = getelementptr inbounds nuw %struct._exr_encode_pipeline, ptr %36, i32 0, i32 16
  %38 = load ptr, ptr %5, align 8, !tbaa !11
  %39 = getelementptr inbounds nuw %struct._exr_encode_pipeline, ptr %38, i32 0, i32 18
  %40 = call i32 @internal_encode_free_buffer(ptr noundef %35, i32 noundef 2, ptr noundef %37, ptr noundef %39)
  %41 = load ptr, ptr %5, align 8, !tbaa !11
  %42 = load ptr, ptr %5, align 8, !tbaa !11
  %43 = getelementptr inbounds nuw %struct._exr_encode_pipeline, ptr %42, i32 0, i32 19
  %44 = load ptr, ptr %5, align 8, !tbaa !11
  %45 = getelementptr inbounds nuw %struct._exr_encode_pipeline, ptr %44, i32 0, i32 20
  %46 = call i32 @internal_encode_free_buffer(ptr noundef %41, i32 noundef 3, ptr noundef %43, ptr noundef %45)
  %47 = load ptr, ptr %5, align 8, !tbaa !11
  %48 = load ptr, ptr %5, align 8, !tbaa !11
  %49 = getelementptr inbounds nuw %struct._exr_encode_pipeline, ptr %48, i32 0, i32 21
  %50 = load ptr, ptr %5, align 8, !tbaa !11
  %51 = getelementptr inbounds nuw %struct._exr_encode_pipeline, ptr %50, i32 0, i32 22
  %52 = call i32 @internal_encode_free_buffer(ptr noundef %47, i32 noundef 4, ptr noundef %49, ptr noundef %51)
  %53 = load ptr, ptr %5, align 8, !tbaa !11
  %54 = load ptr, ptr %5, align 8, !tbaa !11
  %55 = getelementptr inbounds nuw %struct._exr_encode_pipeline, ptr %54, i32 0, i32 13
  %56 = load ptr, ptr %5, align 8, !tbaa !11
  %57 = getelementptr inbounds nuw %struct._exr_encode_pipeline, ptr %56, i32 0, i32 15
  %58 = call i32 @internal_encode_free_buffer(ptr noundef %53, i32 noundef 5, ptr noundef %55, ptr noundef %57)
  %59 = load ptr, ptr %5, align 8, !tbaa !11
  call void @llvm.memcpy.p0.p0.i64(ptr align 8 %59, ptr align 8 %6, i64 512, i1 false), !tbaa.struct !33
  call void @llvm.lifetime.end.p0(i64 512, ptr %6) #7
  br label %60

60:                                               ; preds = %28, %10
  store i32 0, ptr %3, align 4
  br label %61

61:                                               ; preds = %60, %9
  %62 = load i32, ptr %3, align 4
  ret i32 %62
}