; Function Attrs: nounwind uwtable
define range(i32 0, 3) i32 @exr_encoding_destroy(ptr noundef readonly %0, ptr noundef %1) local_unnamed_addr #0 {
  %.not = icmp eq ptr %0, null
  br i1 %.not, label %27, label %3

3:                                                ; preds = %2
  %.not25 = icmp eq ptr %1, null
  br i1 %.not25, label %27, label %4

4:                                                ; preds = %3
  %5 = getelementptr inbounds nuw i8, ptr %1, i64 8
  %6 = load ptr, ptr %5, align 8, !tbaa !53
  %7 = getelementptr inbounds nuw i8, ptr %1, i64 272
  %.not26 = icmp eq ptr %6, %7
  br i1 %.not26, label %11, label %8

8:                                                ; preds = %4
  %9 = getelementptr inbounds nuw i8, ptr %0, i64 96
  %10 = load ptr, ptr %9, align 8, !tbaa !71
  tail call void %10(ptr noundef %6) #5
  br label %11

11:                                               ; preds = %8, %4
  %12 = getelementptr inbounds nuw i8, ptr %1, i64 104
  %13 = getelementptr inbounds nuw i8, ptr %1, i64 120
  %14 = tail call i32 @internal_encode_free_buffer(ptr noundef nonnull %1, i32 noundef 0, ptr noundef nonnull %12, ptr noundef nonnull %13) #5
  %15 = getelementptr inbounds nuw i8, ptr %1, i64 168
  %16 = getelementptr inbounds nuw i8, ptr %1, i64 184
  %17 = tail call i32 @internal_encode_free_buffer(ptr noundef nonnull %1, i32 noundef 2, ptr noundef nonnull %15, ptr noundef nonnull %16) #5
  %18 = getelementptr inbounds nuw i8, ptr %1, i64 192
  %19 = getelementptr inbounds nuw i8, ptr %1, i64 200
  %20 = tail call i32 @internal_encode_free_buffer(ptr noundef nonnull %1, i32 noundef 3, ptr noundef nonnull %18, ptr noundef nonnull %19) #5
  %21 = getelementptr inbounds nuw i8, ptr %1, i64 208
  %22 = getelementptr inbounds nuw i8, ptr %1, i64 216
  %23 = tail call i32 @internal_encode_free_buffer(ptr noundef nonnull %1, i32 noundef 4, ptr noundef nonnull %21, ptr noundef nonnull %22) #5
  %24 = getelementptr inbounds nuw i8, ptr %1, i64 144
  %25 = getelementptr inbounds nuw i8, ptr %1, i64 160
  %26 = tail call i32 @internal_encode_free_buffer(ptr noundef nonnull %1, i32 noundef 5, ptr noundef nonnull %24, ptr noundef nonnull %25) #5
  tail call void @llvm.memset.p0.i64(ptr noundef nonnull align 8 dereferenceable(512) %1, i8 0, i64 512, i1 false)
  br label %27

27:                                               ; preds = %3, %11, %2
  %.0 = phi i32 [ 2, %2 ], [ 0, %11 ], [ 0, %3 ]
  ret i32 %.0
}